target datalayout = "e-m:e-p270:32:32-p271:32:32-p272:64:64-i64:64-i128:128-f80:128-n8:16:32:64-S128"
target triple = "x86_64-pc-linux-gnu"

%struct.lua_State = type { ptr, i8, i8, i8, i8, i16, %union.StkIdRel, ptr, ptr, %union.StkIdRel, %union.StkIdRel, ptr, %union.StkIdRel, ptr, ptr, ptr, %struct.CallInfo, ptr, i64, i32, i32, i32, i32, i32, %struct.anon.2 }
%union.StkIdRel = type { ptr }
%struct.CallInfo = type { %union.StkIdRel, %union.StkIdRel, ptr, ptr, %union.anon, %union.anon.1, i32 }
%union.anon = type { %struct.anon.0 }
%struct.anon.0 = type { ptr, i64, i64 }
%union.anon.1 = type { i32 }
%struct.anon.2 = type { i32, i32 }
%struct.global_State = type { ptr, ptr, i64, i64, i64, i64, %struct.stringtable, %struct.TValue, %struct.TValue, i32, [6 x i8], i8, i8, i8, i8, i8, i8, ptr, ptr, ptr, ptr, ptr, ptr, ptr, ptr, ptr, ptr, ptr, ptr, ptr, ptr, ptr, ptr, ptr, ptr, ptr, ptr, ptr, [25 x ptr], [9 x ptr], [53 x [2 x ptr]], ptr, ptr }
%struct.stringtable = type { ptr, i32, i32 }
%struct.TValue = type { %union.Value, i8 }
%union.Value = type { ptr }
%struct.GCObject = type { ptr, i8, i8 }

; Function Attrs: nounwind uwtable
define internal ptr @sweeplist(ptr noundef %0, ptr noundef %1, i64 noundef %2) #0 {
  %4 = alloca ptr, align 8
  %5 = alloca ptr, align 8
  %6 = alloca i64, align 8
  %7 = alloca ptr, align 8
  %8 = alloca i32, align 4
  %9 = alloca i32, align 4
  %10 = alloca ptr, align 8
  %11 = alloca i32, align 4
  store ptr %0, ptr %4, align 8, !tbaa !4
  store ptr %1, ptr %5, align 8, !tbaa !52
  store i64 %2, ptr %6, align 8, !tbaa !56
  call void @llvm.lifetime.start.p0(i64 8, ptr %7) #6
  %12 = load ptr, ptr %4, align 8, !tbaa !4
  %13 = getelementptr inbounds nuw %struct.lua_State, ptr %12, i32 0, i32 7
  %14 = load ptr, ptr %13, align 8, !tbaa !11
  store ptr %14, ptr %7, align 8, !tbaa !22
  call void @llvm.lifetime.start.p0(i64 4, ptr %8) #6
  %15 = load ptr, ptr %7, align 8, !tbaa !22
  %16 = getelementptr inbounds nuw %struct.global_State, ptr %15, i32 0, i32 11
  %17 = load i8, ptr %16, align 2, !tbaa !33
  %18 = zext i8 %17 to i32
  %19 = xor i32 %18, 24
  store i32 %19, ptr %8, align 4, !tbaa !65
  call void @llvm.lifetime.start.p0(i64 4, ptr %9) #6
  %20 = load ptr, ptr %7, align 8, !tbaa !22
  %21 = getelementptr inbounds nuw %struct.global_State, ptr %20, i32 0, i32 11
  %22 = load i8, ptr %21, align 2, !tbaa !33
  %23 = zext i8 %22 to i32
  %24 = and i32 %23, 24
  %25 = trunc i32 %24 to i8
  %26 = zext i8 %25 to i32
  store i32 %26, ptr %9, align 4, !tbaa !65
  br label %27

27:                                               ; preds = %66, %3
  %28 = load ptr, ptr %5, align 8, !tbaa !52
  %29 = load ptr, ptr %28, align 8, !tbaa !9
  %30 = icmp ne ptr %29, null
  br i1 %30, label %31, label %35

31:                                               ; preds = %27
  %32 = load i64, ptr %6, align 8, !tbaa !56
  %33 = add nsw i64 %32, -1
  store i64 %33, ptr %6, align 8, !tbaa !56
  %34 = icmp sgt i64 %32, 0
  br label %35

35:                                               ; preds = %31, %27
  %36 = phi i1 [ false, %27 ], [ %34, %31 ]
  br i1 %36, label %37, label %67

37:                                               ; preds = %35
  call void @llvm.lifetime.start.p0(i64 8, ptr %10) #6
  %38 = load ptr, ptr %5, align 8, !tbaa !52
  %39 = load ptr, ptr %38, align 8, !tbaa !9
  store ptr %39, ptr %10, align 8, !tbaa !9
  call void @llvm.lifetime.start.p0(i64 4, ptr %11) #6
  %40 = load ptr, ptr %10, align 8, !tbaa !9
  %41 = getelementptr inbounds nuw %struct.GCObject, ptr %40, i32 0, i32 2
  %42 = load i8, ptr %41, align 1, !tbaa !30
  %43 = zext i8 %42 to i32
  store i32 %43, ptr %11, align 4, !tbaa !65
  %44 = load i32, ptr %11, align 4, !tbaa !65
  %45 = load i32, ptr %8, align 4, !tbaa !65
  %46 = and i32 %44, %45
  %47 = icmp ne i32 %46, 0
  br i1 %47, label %48, label %55

48:                                               ; preds = %37
  %49 = load ptr, ptr %10, align 8, !tbaa !9
  %50 = getelementptr inbounds nuw %struct.GCObject, ptr %49, i32 0, i32 0
  %51 = load ptr, ptr %50, align 8, !tbaa !53
  %52 = load ptr, ptr %5, align 8, !tbaa !52
  store ptr %51, ptr %52, align 8, !tbaa !9
  %53 = load ptr, ptr %4, align 8, !tbaa !4
  %54 = load ptr, ptr %10, align 8, !tbaa !9
  call void @freeobj(ptr noundef %53, ptr noundef %54)
  br label %66

55:                                               ; preds = %37
  %56 = load i32, ptr %11, align 4, !tbaa !65
  %57 = and i32 %56, -64
  %58 = load i32, ptr %9, align 4, !tbaa !65
  %59 = or i32 %57, %58
  %60 = or i32 %59, 0
  %61 = trunc i32 %60 to i8
  %62 = load ptr, ptr %10, align 8, !tbaa !9
  %63 = getelementptr inbounds nuw %struct.GCObject, ptr %62, i32 0, i32 2
  store i8 %61, ptr %63, align 1, !tbaa !30
  %64 = load ptr, ptr %10, align 8, !tbaa !9
  %65 = getelementptr inbounds nuw %struct.GCObject, ptr %64, i32 0, i32 0
  store ptr %65, ptr %5, align 8, !tbaa !52
  br label %66

66:                                               ; preds = %55, %48
  call void @llvm.lifetime.end.p0(i64 4, ptr %11) #6
  call void @llvm.lifetime.end.p0(i64 8, ptr %10) #6
  br label %27

67:                                               ; preds = %35
  %68 = load ptr, ptr %5, align 8, !tbaa !52
  %69 = load ptr, ptr %68, align 8, !tbaa !9
  %70 = icmp eq ptr %69, null
  br i1 %70, label %71, label %72

71:                                               ; preds = %67
  br label %74

72:                                               ; preds = %67
  %73 = load ptr, ptr %5, align 8, !tbaa !52
  br label %74

74:                                               ; preds = %72, %71
  %75 = phi ptr [ null, %71 ], [ %73, %72 ]
  call void @llvm.lifetime.end.p0(i64 4, ptr %9) #6
  call void @llvm.lifetime.end.p0(i64 4, ptr %8) #6
  call void @llvm.lifetime.end.p0(i64 8, ptr %7) #6
  ret ptr %75
}

; Function Attrs: nounwind uwtable
define internal ptr @sweeptolive(ptr noundef %0, ptr noundef %1) #0 {
  %3 = alloca ptr, align 8
  %4 = alloca ptr, align 8
  %5 = alloca ptr, align 8
  store ptr %0, ptr %3, align 8, !tbaa !4
  store ptr %1, ptr %4, align 8, !tbaa !52
  call void @llvm.lifetime.start.p0(i64 8, ptr %5) #6
  %6 = load ptr, ptr %4, align 8, !tbaa !52
  store ptr %6, ptr %5, align 8, !tbaa !52
  br label %7

7:                                                ; preds = %11, %2
  %8 = load ptr, ptr %3, align 8, !tbaa !4
  %9 = load ptr, ptr %4, align 8, !tbaa !52
  %10 = call ptr @sweeplist(ptr noundef %8, ptr noundef %9, i64 noundef 1)
  store ptr %10, ptr %4, align 8, !tbaa !52
  br label %11

11:                                               ; preds = %7
  %12 = load ptr, ptr %4, align 8, !tbaa !52
  %13 = load ptr, ptr %5, align 8, !tbaa !52
  %14 = icmp eq ptr %12, %13
  br i1 %14, label %7, label %15

15:                                               ; preds = %11
  %16 = load ptr, ptr %4, align 8, !tbaa !52
  call void @llvm.lifetime.end.p0(i64 8, ptr %5) #6
  ret ptr %16
}

; Function Attrs: nounwind uwtable
define internal void @setpause(ptr noundef %0) #0 {
  %2 = alloca ptr, align 8
  %3 = alloca i64, align 8
  %4 = alloca i64, align 8
  store ptr %0, ptr %2, align 8, !tbaa !22
  call void @llvm.lifetime.start.p0(i64 8, ptr %3) #6
  %5 = load ptr, ptr %2, align 8, !tbaa !22
  %6 = getelementptr inbounds nuw %struct.global_State, ptr %5, i32 0, i32 10
  %7 = getelementptr inbounds [6 x i8], ptr %6, i64 0, i64 3
  %8 = load i8, ptr %7, align 1, !tbaa !37
  %9 = load ptr, ptr %2, align 8, !tbaa !22
  %10 = getelementptr inbounds nuw %struct.global_State, ptr %9, i32 0, i32 4
  %11 = load i64, ptr %10, align 8, !tbaa !34
  %12 = call i64 @luaO_applyparam(i8 noundef zeroext %8, i64 noundef %11)
  store i64 %12, ptr %3, align 8, !tbaa !56
  call void @llvm.lifetime.start.p0(i64 8, ptr %4) #6
  %13 = load i64, ptr %3, align 8, !tbaa !56
  %14 = load ptr, ptr %2, align 8, !tbaa !22
  %15 = getelementptr inbounds nuw %struct.global_State, ptr %14, i32 0, i32 2
  %16 = load i64, ptr %15, align 8, !tbaa !146
  %17 = load ptr, ptr %2, align 8, !tbaa !22
  %18 = getelementptr inbounds nuw %struct.global_State, ptr %17, i32 0, i32 3
  %19 = load i64, ptr %18, align 8, !tbaa !147
  %20 = sub nsw i64 %16, %19
  %21 = sub nsw i64 %13, %20
  store i64 %21, ptr %4, align 8, !tbaa !56
  %22 = load i64, ptr %4, align 8, !tbaa !56
  %23 = icmp slt i64 %22, 0
  br i1 %23, label %24, label %25

24:                                               ; preds = %1
  store i64 0, ptr %4, align 8, !tbaa !56
  br label %25

25:                                               ; preds = %24, %1
  %26 = load ptr, ptr %2, align 8, !tbaa !22
  %27 = load i64, ptr %4, align 8, !tbaa !56
  call void @luaE_setdebt(ptr noundef %26, i64 noundef %27)
  call void @llvm.lifetime.end.p0(i64 8, ptr %4) #6
  call void @llvm.lifetime.end.p0(i64 8, ptr %3) #6
  ret void
}

; Function Attrs: nounwind uwtable
define hidden void @luaC_runtilstate(ptr noundef %0, i32 noundef %1, i32 noundef %2) #0 {
  %4 = alloca ptr, align 8
  %5 = alloca i32, align 4
  %6 = alloca i32, align 4
  %7 = alloca ptr, align 8
  store ptr %0, ptr %4, align 8, !tbaa !4
  store i32 %1, ptr %5, align 4, !tbaa !65
  store i32 %2, ptr %6, align 4, !tbaa !65
  call void @llvm.lifetime.start.p0(i64 8, ptr %7) #6
  %8 = load ptr, ptr %4, align 8, !tbaa !4
  %9 = getelementptr inbounds nuw %struct.lua_State, ptr %8, i32 0, i32 7
  %10 = load ptr, ptr %9, align 8, !tbaa !11
  store ptr %10, ptr %7, align 8, !tbaa !22
  br label %11

11:                                               ; preds = %18, %3
  %12 = load i32, ptr %5, align 4, !tbaa !65
  %13 = load ptr, ptr %7, align 8, !tbaa !22
  %14 = getelementptr inbounds nuw %struct.global_State, ptr %13, i32 0, i32 12
  %15 = load i8, ptr %14, align 1, !tbaa !23
  %16 = zext i8 %15 to i32
  %17 = icmp ne i32 %12, %16
  br i1 %17, label %18, label %22

18:                                               ; preds = %11
  %19 = load ptr, ptr %4, align 8, !tbaa !4
  %20 = load i32, ptr %6, align 4, !tbaa !65
  %21 = call i64 @singlestep(ptr noundef %19, i32 noundef %20)
  br label %11

22:                                               ; preds = %11
  call void @llvm.lifetime.end.p0(i64 8, ptr %7) #6
  ret void
}

; Function Attrs: nounwind uwtable
define internal void @entersweep(ptr noundef %0) #0 {
  %2 = alloca ptr, align 8
  %3 = alloca ptr, align 8
  store ptr %0, ptr %2, align 8, !tbaa !4
  call void @llvm.lifetime.start.p0(i64 8, ptr %3) #6
  %4 = load ptr, ptr %2, align 8, !tbaa !4
  %5 = getelementptr inbounds nuw %struct.lua_State, ptr %4, i32 0, i32 7
  %6 = load ptr, ptr %5, align 8, !tbaa !11
  store ptr %6, ptr %3, align 8, !tbaa !22
  %7 = load ptr, ptr %3, align 8, !tbaa !22
  %8 = getelementptr inbounds nuw %struct.global_State, ptr %7, i32 0, i32 12
  store i8 3, ptr %8, align 1, !tbaa !23
  %9 = load ptr, ptr %2, align 8, !tbaa !4
  %10 = load ptr, ptr %3, align 8, !tbaa !22
  %11 = getelementptr inbounds nuw %struct.global_State, ptr %10, i32 0, i32 17
  %12 = call ptr @sweeptolive(ptr noundef %9, ptr noundef %11)
  %13 = load ptr, ptr %3, align 8, !tbaa !22
  %14 = getelementptr inbounds nuw %struct.global_State, ptr %13, i32 0, i32 18
  store ptr %12, ptr %14, align 8, !tbaa !63
  call void @llvm.lifetime.end.p0(i64 8, ptr %3) #6
  ret void
}

; Function Attrs: nounwind uwtable
define internal void @fullinc(ptr noundef %0, ptr noundef %1) #0 {
  %3 = alloca ptr, align 8
  %4 = alloca ptr, align 8
  store ptr %0, ptr %3, align 8, !tbaa !4
  store ptr %1, ptr %4, align 8, !tbaa !22
  %5 = load ptr, ptr %4, align 8, !tbaa !22
  %6 = getelementptr inbounds nuw %struct.global_State, ptr %5, i32 0, i32 12
  %7 = load i8, ptr %6, align 1, !tbaa !23
  %8 = zext i8 %7 to i32
  %9 = icmp sle i32 %8, 2
  br i1 %9, label %10, label %12

10:                                               ; preds = %2
  %11 = load ptr, ptr %3, align 8, !tbaa !4
  call void @entersweep(ptr noundef %11)
  br label %12

12:                                               ; preds = %10, %2
  %13 = load ptr, ptr %3, align 8, !tbaa !4
  call void @luaC_runtilstate(ptr noundef %13, i32 noundef 8, i32 noundef 1)
  %14 = load ptr, ptr %3, align 8, !tbaa !4
  call void @luaC_runtilstate(ptr noundef %14, i32 noundef 7, i32 noundef 1)
  %15 = load ptr, ptr %3, align 8, !tbaa !4
  call void @luaC_runtilstate(ptr noundef %15, i32 noundef 8, i32 noundef 1)
  %16 = load ptr, ptr %4, align 8, !tbaa !22
  call void @setpause(ptr noundef %16)
  ret void
}