; Function Attrs: nounwind uwtable
define internal fastcc void @fullinc(ptr noundef %0, ptr noundef %1) unnamed_addr #0 {
  %3 = getelementptr inbounds nuw i8, ptr %1, i64 107
  %4 = load i8, ptr %3, align 1, !tbaa !20
  %5 = icmp ult i8 %4, 3
  br i1 %5, label %6, label %34

6:                                                ; preds = %2
  %7 = getelementptr inbounds nuw i8, ptr %0, i64 24
  %8 = load ptr, ptr %7, align 8, !tbaa !4
  %9 = getelementptr inbounds nuw i8, ptr %8, i64 107
  store i8 3, ptr %9, align 1, !tbaa !20
  %10 = getelementptr inbounds nuw i8, ptr %8, i64 112
  %.pre.i = load ptr, ptr %10, align 8, !tbaa !46
  br label %11

11:                                               ; preds = %sweeplist.exit.i.i, %6
  %12 = phi ptr [ %.pre.i, %6 ], [ %18, %sweeplist.exit.i.i ]
  %.0.i.i = phi ptr [ %10, %6 ], [ %.023.i.i.i, %sweeplist.exit.i.i ]
  %13 = load ptr, ptr %7, align 8, !tbaa !4
  %14 = getelementptr inbounds nuw i8, ptr %13, i64 106
  %15 = load i8, ptr %14, align 2, !tbaa !30
  %16 = xor i8 %15, 24
  %17 = and i8 %15, 24
  %.not21.i.i.i = icmp eq ptr %12, null
  br i1 %.not21.i.i.i, label %entersweep.exit, label %.lr.ph.i.i.i

.lr.ph.i.i.i:                                     ; preds = %11, %29
  %18 = phi ptr [ %30, %29 ], [ %12, %11 ]
  %.023.i.i.i = phi ptr [ %.1.i.i.i, %29 ], [ %.0.i.i, %11 ]
  %.01822.i.i.i = phi i64 [ %19, %29 ], [ 1, %11 ]
  %19 = add nsw i64 %.01822.i.i.i, -1
  %.not.i.i = icmp eq i64 %.01822.i.i.i, 0
  br i1 %.not.i.i, label %sweeplist.exit.i.i, label %20

20:                                               ; preds = %.lr.ph.i.i.i
  %21 = getelementptr inbounds nuw i8, ptr %18, i64 9
  %22 = load i8, ptr %21, align 1, !tbaa !27
  %23 = and i8 %22, %16
  %.not20.i.i.i = icmp eq i8 %23, 0
  br i1 %.not20.i.i.i, label %26, label %24

24:                                               ; preds = %20
  %25 = load ptr, ptr %18, align 8, !tbaa !47
  store ptr %25, ptr %.023.i.i.i, align 8, !tbaa !46
  tail call fastcc void @freeobj(ptr noundef %0, ptr noundef nonnull %18)
  br label %29

26:                                               ; preds = %20
  %27 = and i8 %22, -64
  %28 = or disjoint i8 %27, %17
  store i8 %28, ptr %21, align 1, !tbaa !27
  br label %29

29:                                               ; preds = %26, %24
  %.1.i.i.i = phi ptr [ %.023.i.i.i, %24 ], [ %18, %26 ]
  %30 = load ptr, ptr %.1.i.i.i, align 8, !tbaa !46
  %.not.i.i.i = icmp eq ptr %30, null
  br i1 %.not.i.i.i, label %entersweep.exit, label %.lr.ph.i.i.i

sweeplist.exit.i.i:                               ; preds = %.lr.ph.i.i.i
  %31 = icmp eq ptr %.023.i.i.i, %10
  br i1 %31, label %11, label %entersweep.exit

entersweep.exit:                                  ; preds = %11, %sweeplist.exit.i.i, %29
  %32 = phi ptr [ null, %29 ], [ %.023.i.i.i, %sweeplist.exit.i.i ], [ null, %11 ]
  %33 = getelementptr inbounds nuw i8, ptr %8, i64 120
  store ptr %32, ptr %33, align 8, !tbaa !53
  br label %34

34:                                               ; preds = %entersweep.exit, %2
  %35 = getelementptr inbounds nuw i8, ptr %0, i64 24
  %36 = load ptr, ptr %35, align 8, !tbaa !4
  %37 = getelementptr inbounds nuw i8, ptr %36, i64 107
  %38 = load i8, ptr %37, align 1, !tbaa !20
  %.not4.i = icmp eq i8 %38, 8
  br i1 %.not4.i, label %.lr.ph.i7.preheader, label %.lr.ph.i

.lr.ph.i:                                         ; preds = %34, %.lr.ph.i
  %39 = tail call fastcc i64 @singlestep(ptr noundef %0, i32 noundef 1)
  %40 = load i8, ptr %37, align 1, !tbaa !20
  %.not.i = icmp eq i8 %40, 8
  br i1 %.not.i, label %luaC_runtilstate.exit, label %.lr.ph.i

luaC_runtilstate.exit:                            ; preds = %.lr.ph.i
  %.pre = load ptr, ptr %35, align 8, !tbaa !4
  %.phi.trans.insert = getelementptr inbounds nuw i8, ptr %.pre, i64 107
  %.pre20 = load i8, ptr %.phi.trans.insert, align 1, !tbaa !20
  %41 = icmp eq i8 %.pre20, 7
  br i1 %41, label %.lr.ph.i11.preheader, label %.lr.ph.i7.preheader

.lr.ph.i7.preheader:                              ; preds = %34, %luaC_runtilstate.exit
  %.pn = phi ptr [ %.pre, %luaC_runtilstate.exit ], [ %36, %34 ]
  %42 = getelementptr inbounds nuw i8, ptr %.pn, i64 107
  br label %.lr.ph.i7

.lr.ph.i7:                                        ; preds = %.lr.ph.i7.preheader, %.lr.ph.i7
  %43 = tail call fastcc i64 @singlestep(ptr noundef %0, i32 noundef 1)
  %44 = load i8, ptr %42, align 1, !tbaa !20
  %.not.i8 = icmp eq i8 %44, 7
  br i1 %.not.i8, label %luaC_runtilstate.exit9, label %.lr.ph.i7

luaC_runtilstate.exit9:                           ; preds = %.lr.ph.i7
  %.pre21 = load ptr, ptr %35, align 8, !tbaa !4
  %.phi.trans.insert22 = getelementptr inbounds nuw i8, ptr %.pre21, i64 107
  %.pre23 = load i8, ptr %.phi.trans.insert22, align 1, !tbaa !20
  %45 = icmp eq i8 %.pre23, 8
  br i1 %45, label %luaC_runtilstate.exit13, label %.lr.ph.i11.preheader

.lr.ph.i11.preheader:                             ; preds = %luaC_runtilstate.exit, %luaC_runtilstate.exit9
  %.pre.pn = phi ptr [ %.pre21, %luaC_runtilstate.exit9 ], [ %.pre, %luaC_runtilstate.exit ]
  %46 = getelementptr inbounds nuw i8, ptr %.pre.pn, i64 107
  br label %.lr.ph.i11

.lr.ph.i11:                                       ; preds = %.lr.ph.i11.preheader, %.lr.ph.i11
  %47 = tail call fastcc i64 @singlestep(ptr noundef %0, i32 noundef 1)
  %48 = load i8, ptr %46, align 1, !tbaa !20
  %.not.i12 = icmp eq i8 %48, 8
  br i1 %.not.i12, label %luaC_runtilstate.exit13, label %.lr.ph.i11

luaC_runtilstate.exit13:                          ; preds = %.lr.ph.i11, %luaC_runtilstate.exit9
  %49 = getelementptr inbounds nuw i8, ptr %1, i64 103
  %50 = load i8, ptr %49, align 1, !tbaa !33
  %51 = getelementptr inbounds nuw i8, ptr %1, i64 32
  %52 = load i64, ptr %51, align 8, !tbaa !31
  %53 = tail call i64 @luaO_applyparam(i8 noundef zeroext %50, i64 noundef %52) #8
  %54 = getelementptr inbounds nuw i8, ptr %1, i64 16
  %55 = load i64, ptr %54, align 8, !tbaa !65
  %56 = getelementptr inbounds nuw i8, ptr %1, i64 24
  %57 = load i64, ptr %56, align 8, !tbaa !66
  %.neg.i = sub i64 %53, %55
  %58 = add i64 %.neg.i, %57
  %spec.store.select.i = tail call i64 @llvm.smax.i64(i64 %58, i64 0)
  tail call void @luaE_setdebt(ptr noundef %1, i64 noundef %spec.store.select.i) #8
  ret void
}